Certificate:
    Data:
        Version: 3 (0x2)
        Serial Number: 2 (0x2)
    Signature Algorithm: sha256WithRSAEncryption
        Issuer: C=GR, ST=CR, L=Ierapetra, O=3epal-esp-ierap.las.sch.gr, OU=Computer_Science, CN=3epal-esp-ierap.las.sch.gr CA/name=EasyRSA/emailAddress=admin@3epal-esp-ierap.las.sch.gr
        Validity
            Not Before: Feb 26 19:23:34 2019 GMT
            Not After : Feb 23 19:23:34 2029 GMT
        Subject: C=GR, ST=CR, L=Ierapetra, O=3epal-esp-ierap.las.sch.gr, OU=Computer_Science, CN=meteo1/name=EasyRSA/emailAddress=admin@3epal-esp-ierap.las.sch.gr
        Subject Public Key Info:
            Public Key Algorithm: rsaEncryption
                Public-Key: (2048 bit)
                Modulus:
                    00:cb:3a:7a:84:99:74:da:8b:2e:79:78:09:cd:50:
                    01:a1:a8:4f:99:ad:80:1d:d5:e3:3f:9c:10:97:fd:
                    93:e5:20:f6:22:8f:5e:9d:9a:63:3e:e0:72:10:25:
                    70:54:3c:9d:b5:ad:90:06:ce:01:64:93:8b:b8:5b:
                    3a:c1:dd:93:09:6d:02:ed:86:3c:fd:d8:a6:75:64:
                    66:7b:d2:3d:7d:bb:e1:66:7f:b7:e2:31:96:f6:bf:
                    23:6e:54:a3:99:5a:7c:35:aa:fc:f8:86:06:31:23:
                    75:b7:59:35:b2:96:51:8d:25:b5:ee:13:4c:c4:a8:
                    37:d1:2d:95:66:27:79:7e:34:6d:cb:37:13:3d:9a:
                    03:06:50:f5:92:ce:d7:4a:36:ee:45:ad:97:1d:7d:
                    df:7f:4f:ee:1e:77:5c:1d:99:0f:b2:21:12:45:22:
                    6c:ca:5e:0a:fd:1d:bc:83:4e:04:4a:a8:38:ad:d8:
                    cc:7b:07:9e:e2:a7:a5:24:f6:de:de:7f:e0:51:49:
                    72:6c:b7:08:31:04:55:7b:85:20:23:81:14:d1:4a:
                    e6:da:da:e2:99:46:8a:e0:50:34:a2:2c:f7:76:77:
                    9e:d6:48:99:c0:ef:0b:0a:04:83:c7:85:43:6b:fa:
                    30:ba:d6:a6:3a:d0:98:37:19:29:94:74:a6:c6:b6:
                    40:8f
                Exponent: 65537 (0x10001)
        X509v3 extensions:
            X509v3 Basic Constraints: 
                CA:FALSE
            Netscape Comment: 
                Easy-RSA Generated Certificate
            X509v3 Subject Key Identifier: 
                C2:70:E2:A7:20:34:96:71:BF:95:88:86:B5:D3:DB:62:EB:74:C2:8B
            X509v3 Authority Key Identifier: 
                keyid:46:EB:E2:B9:D6:43:6F:B8:86:1E:BE:D4:7D:40:85:E2:D9:6A:47:23
                DirName:/C=GR/ST=CR/L=Ierapetra/O=3epal-esp-ierap.las.sch.gr/OU=Computer_Science/CN=3epal-esp-ierap.las.sch.gr CA/name=EasyRSA/emailAddress=admin@3epal-esp-ierap.las.sch.gr
                serial:8C:75:53:8A:49:DD:15:EA

            X509v3 Extended Key Usage: 
                TLS Web Client Authentication
            X509v3 Key Usage: 
                Digital Signature
            X509v3 Subject Alternative Name: 
                DNS:meteo1
    Signature Algorithm: sha256WithRSAEncryption
         05:96:ef:c4:1c:0c:bb:ec:a1:bd:77:7d:3d:57:cf:3a:2e:b6:
         b3:27:93:e0:d1:aa:1b:d8:63:9f:a2:49:42:bd:7d:76:4d:1b:
         a6:57:c5:96:bd:9f:fe:da:3d:3b:a2:d2:99:d1:da:c2:67:0e:
         7b:61:1f:24:30:c0:65:16:b4:f5:f8:ee:99:4e:f3:df:37:9d:
         4f:71:18:73:ee:5e:18:4a:a5:51:1c:2e:dc:81:31:d1:18:48:
         c9:71:f9:b4:1a:1c:14:aa:2c:ec:1a:d7:9a:e4:2f:db:00:14:
         f2:40:cf:be:e6:e5:23:d3:f9:01:b2:92:86:e6:32:62:c3:4b:
         ae:dd:c9:29:b0:31:0a:d9:5a:69:59:2c:8a:f4:3d:07:a2:cc:
         9a:81:d7:d6:8e:64:4a:61:39:ce:32:bc:4b:10:48:ee:04:e5:
         a8:12:54:ff:82:bc:41:29:51:65:a6:3f:71:61:c1:4f:ea:92:
         a1:69:e5:b8:84:5b:f3:d5:35:9e:d7:79:47:f8:1d:2a:b4:02:
         7a:6c:45:8b:19:74:9e:a6:fe:e7:81:df:2a:e9:26:63:e1:33:
         b8:7d:12:34:62:e1:fa:10:d7:7d:d3:92:f2:29:76:2f:25:81:
         25:4a:83:73:eb:90:09:df:62:e5:ce:9e:95:56:70:0b:ac:fd:
         3e:17:fd:fa
-----BEGIN CERTIFICATE-----
MIIFwDCCBKigAwIBAgIBAjANBgkqhkiG9w0BAQsFADCB2TELMAkGA1UEBhMCR1Ix
CzAJBgNVBAgTAkNSMRIwEAYDVQQHEwlJZXJhcGV0cmExIzAhBgNVBAoTGjNlcGFs
LWVzcC1pZXJhcC5sYXMuc2NoLmdyMRkwFwYDVQQLFBBDb21wdXRlcl9TY2llbmNl
MSYwJAYDVQQDEx0zZXBhbC1lc3AtaWVyYXAubGFzLnNjaC5nciBDQTEQMA4GA1UE
KRMHRWFzeVJTQTEvMC0GCSqGSIb3DQEJARYgYWRtaW5AM2VwYWwtZXNwLWllcmFw
Lmxhcy5zY2guZ3IwHhcNMTkwMjI2MTkyMzM0WhcNMjkwMjIzMTkyMzM0WjCBwjEL
MAkGA1UEBhMCR1IxCzAJBgNVBAgTAkNSMRIwEAYDVQQHEwlJZXJhcGV0cmExIzAh
BgNVBAoTGjNlcGFsLWVzcC1pZXJhcC5sYXMuc2NoLmdyMRkwFwYDVQQLFBBDb21w
dXRlcl9TY2llbmNlMQ8wDQYDVQQDEwZtZXRlbzExEDAOBgNVBCkTB0Vhc3lSU0Ex
LzAtBgkqhkiG9w0BCQEWIGFkbWluQDNlcGFsLWVzcC1pZXJhcC5sYXMuc2NoLmdy
MIIBIjANBgkqhkiG9w0BAQEFAAOCAQ8AMIIBCgKCAQEAyzp6hJl02osueXgJzVAB
oahPma2AHdXjP5wQl/2T5SD2Io9enZpjPuByECVwVDydta2QBs4BZJOLuFs6wd2T
CW0C7YY8/dimdWRme9I9fbvhZn+34jGW9r8jblSjmVp8Nar8+IYGMSN1t1k1spZR
jSW17hNMxKg30S2VZid5fjRtyzcTPZoDBlD1ks7XSjbuRa2XHX3ff0/uHndcHZkP
siESRSJsyl4K/R28g04ESqg4rdjMewee4qelJPbe3n/gUUlybLcIMQRVe4UgI4EU
0Urm2trimUaK4FA0oiz3dnee1kiZwO8LCgSDx4VDa/owutamOtCYNxkplHSmxrZA
jwIDAQABo4IBpjCCAaIwCQYDVR0TBAIwADAtBglghkgBhvhCAQ0EIBYeRWFzeS1S
U0EgR2VuZXJhdGVkIENlcnRpZmljYXRlMB0GA1UdDgQWBBTCcOKnIDSWcb+ViIa1
09ti63TCizCCARAGA1UdIwSCAQcwggEDgBRG6+K51kNvuIYevtR9QIXi2WpHI6GB
36SB3DCB2TELMAkGA1UEBhMCR1IxCzAJBgNVBAgTAkNSMRIwEAYDVQQHEwlJZXJh
cGV0cmExIzAhBgNVBAoTGjNlcGFsLWVzcC1pZXJhcC5sYXMuc2NoLmdyMRkwFwYD
VQQLFBBDb21wdXRlcl9TY2llbmNlMSYwJAYDVQQDEx0zZXBhbC1lc3AtaWVyYXAu
bGFzLnNjaC5nciBDQTEQMA4GA1UEKRMHRWFzeVJTQTEvMC0GCSqGSIb3DQEJARYg
YWRtaW5AM2VwYWwtZXNwLWllcmFwLmxhcy5zY2guZ3KCCQCMdVOKSd0V6jATBgNV
HSUEDDAKBggrBgEFBQcDAjALBgNVHQ8EBAMCB4AwEQYDVR0RBAowCIIGbWV0ZW8x
MA0GCSqGSIb3DQEBCwUAA4IBAQAFlu/EHAy77KG9d309V886LrazJ5Pg0aob2GOf
oklCvX12TRumV8WWvZ/+2j07otKZ0drCZw57YR8kMMBlFrT1+O6ZTvPfN51PcRhz
7l4YSqVRHC7cgTHRGEjJcfm0GhwUqizsGtea5C/bABTyQM++5uUj0/kBspKG5jJi
w0uu3ckpsDEK2VppWSyK9D0HosyagdfWjmRKYTnOMrxLEEjuBOWoElT/grxBKVFl
pj9xYcFP6pKhaeW4hFvz1TWe13lH+B0qtAJ6bEWLGXSepv7ngd8q6SZj4TO4fRI0
YuH6ENd905LyKXYvJYElSoNz65AJ32Llzp6VVnALrP0+F/36
-----END CERTIFICATE-----
