Certificate:
    Data:
        Version: 3 (0x2)
        Serial Number: 1 (0x1)
    Signature Algorithm: sha256WithRSAEncryption
        Issuer: C=GR, ST=CR, L=Ierapetra, O=3epal-esp-ierap.las.sch.gr, OU=Computer_Science, CN=3epal-esp-ierap.las.sch.gr CA/name=EasyRSA/emailAddress=admin@3epal-esp-ierap.las.sch.gr
        Validity
            Not Before: Feb 25 18:30:28 2019 GMT
            Not After : Feb 22 18:30:28 2029 GMT
        Subject: C=GR, ST=CR, L=Ierapetra, O=3epal-esp-ierap.las.sch.gr, OU=Computer_Science, CN=server/name=EasyRSA/emailAddress=admin@3epal-esp-ierap.las.sch.gr
        Subject Public Key Info:
            Public Key Algorithm: rsaEncryption
                Public-Key: (2048 bit)
                Modulus:
                    00:b6:4d:de:55:41:d3:e1:09:97:4f:82:8d:93:e0:
                    08:e2:b0:e1:8e:f4:7e:2c:89:b0:b8:1f:5d:c5:de:
                    9f:2d:7d:4b:41:7a:5f:00:8f:4b:c9:7a:a6:3e:6e:
                    81:bb:d9:b2:1b:b4:bb:35:8a:d6:89:2c:f0:3c:6d:
                    56:ce:f8:7a:cd:f0:46:49:e7:9d:a2:ce:cb:8e:52:
                    9d:c2:9b:f7:81:c3:ac:0d:09:6d:c6:37:44:8e:6f:
                    93:b4:18:76:e3:fa:58:cc:82:c3:e4:39:67:e5:da:
                    d0:58:51:b0:4e:d0:34:db:c8:31:20:8a:64:fa:ff:
                    8a:7f:db:80:83:cf:49:2e:ed:a8:5c:95:3c:08:0a:
                    e5:c3:b7:08:2e:0a:11:14:85:32:1f:ad:da:bf:61:
                    c6:d3:fb:d6:b3:f2:a5:3d:b0:c8:9e:8f:7e:e0:c8:
                    f9:5d:cb:d9:95:2a:37:33:a7:80:c3:83:36:7f:61:
                    b0:98:fc:3b:a3:c2:70:1c:6e:9a:f3:42:13:05:be:
                    74:55:d7:59:a4:b2:dc:67:c4:e8:5e:65:4a:da:3c:
                    fb:ad:97:76:d0:a0:ee:03:2d:a7:19:ca:a2:35:50:
                    c6:d9:6e:af:50:8e:70:ae:f6:8d:2b:a8:a7:b5:97:
                    ab:6b:df:e4:37:03:ff:b2:0c:29:20:63:49:31:d8:
                    bc:f1
                Exponent: 65537 (0x10001)
        X509v3 extensions:
            X509v3 Basic Constraints: 
                CA:FALSE
            Netscape Cert Type: 
                SSL Server
            Netscape Comment: 
                Easy-RSA Generated Server Certificate
            X509v3 Subject Key Identifier: 
                F1:18:D7:2D:E9:1F:7E:81:EC:0F:F2:B0:72:0E:9D:F2:BF:53:9D:C5
            X509v3 Authority Key Identifier: 
                keyid:46:EB:E2:B9:D6:43:6F:B8:86:1E:BE:D4:7D:40:85:E2:D9:6A:47:23
                DirName:/C=GR/ST=CR/L=Ierapetra/O=3epal-esp-ierap.las.sch.gr/OU=Computer_Science/CN=3epal-esp-ierap.las.sch.gr CA/name=EasyRSA/emailAddress=admin@3epal-esp-ierap.las.sch.gr
                serial:8C:75:53:8A:49:DD:15:EA

            X509v3 Extended Key Usage: 
                TLS Web Server Authentication
            X509v3 Key Usage: 
                Digital Signature, Key Encipherment
            X509v3 Subject Alternative Name: 
                DNS:server
    Signature Algorithm: sha256WithRSAEncryption
         1f:8f:3a:5e:2c:4c:10:82:5a:af:50:7a:33:89:61:86:1c:62:
         ff:23:67:d0:40:de:15:b4:28:ee:c8:2f:9e:bc:d0:b3:35:5e:
         2b:86:dc:80:db:7a:3e:23:f7:ac:01:75:46:fe:16:8d:49:51:
         2b:12:69:bc:21:95:6b:52:be:33:81:aa:35:17:ec:9a:a7:75:
         5d:98:b8:aa:ab:5b:c8:48:f3:eb:1c:58:74:1c:ee:06:33:57:
         9e:dc:60:4a:6c:59:98:b5:ff:91:ef:83:98:58:b6:e4:cd:33:
         00:47:1d:1d:e2:57:d4:1b:91:0b:69:0c:6a:b4:03:cf:8a:e0:
         06:43:8f:69:bb:d4:82:d0:87:73:a9:59:c2:42:7e:56:02:2f:
         9e:fc:e2:94:dd:75:9b:c8:86:cd:40:f7:c5:a3:12:7d:6d:96:
         a9:39:4d:d0:99:aa:c8:62:4e:f1:ff:32:93:b0:d7:e4:0c:31:
         df:93:6a:4a:b8:f1:95:01:0e:d6:42:98:63:83:1c:67:d2:e4:
         ba:73:0e:c8:3f:30:27:96:2b:a3:36:4d:40:ee:3c:81:eb:63:
         0c:96:68:3a:b9:6c:f4:83:5f:7a:45:66:9f:e4:70:4f:a5:ff:
         37:29:59:10:7b:ee:6f:fd:90:30:2f:08:5e:ac:57:a3:17:ea:
         c3:ed:ec:ff
-----BEGIN CERTIFICATE-----
MIIF2jCCBMKgAwIBAgIBATANBgkqhkiG9w0BAQsFADCB2TELMAkGA1UEBhMCR1Ix
CzAJBgNVBAgTAkNSMRIwEAYDVQQHEwlJZXJhcGV0cmExIzAhBgNVBAoTGjNlcGFs
LWVzcC1pZXJhcC5sYXMuc2NoLmdyMRkwFwYDVQQLFBBDb21wdXRlcl9TY2llbmNl
MSYwJAYDVQQDEx0zZXBhbC1lc3AtaWVyYXAubGFzLnNjaC5nciBDQTEQMA4GA1UE
KRMHRWFzeVJTQTEvMC0GCSqGSIb3DQEJARYgYWRtaW5AM2VwYWwtZXNwLWllcmFw
Lmxhcy5zY2guZ3IwHhcNMTkwMjI1MTgzMDI4WhcNMjkwMjIyMTgzMDI4WjCBwjEL
MAkGA1UEBhMCR1IxCzAJBgNVBAgTAkNSMRIwEAYDVQQHEwlJZXJhcGV0cmExIzAh
BgNVBAoTGjNlcGFsLWVzcC1pZXJhcC5sYXMuc2NoLmdyMRkwFwYDVQQLFBBDb21w
dXRlcl9TY2llbmNlMQ8wDQYDVQQDEwZzZXJ2ZXIxEDAOBgNVBCkTB0Vhc3lSU0Ex
LzAtBgkqhkiG9w0BCQEWIGFkbWluQDNlcGFsLWVzcC1pZXJhcC5sYXMuc2NoLmdy
MIIBIjANBgkqhkiG9w0BAQEFAAOCAQ8AMIIBCgKCAQEAtk3eVUHT4QmXT4KNk+AI
4rDhjvR+LImwuB9dxd6fLX1LQXpfAI9LyXqmPm6Bu9myG7S7NYrWiSzwPG1Wzvh6
zfBGSeedos7LjlKdwpv3gcOsDQltxjdEjm+TtBh24/pYzILD5Dln5drQWFGwTtA0
28gxIIpk+v+Kf9uAg89JLu2oXJU8CArlw7cILgoRFIUyH63av2HG0/vWs/KlPbDI
no9+4Mj5XcvZlSo3M6eAw4M2f2GwmPw7o8JwHG6a80ITBb50VddZpLLcZ8ToXmVK
2jz7rZd20KDuAy2nGcqiNVDG2W6vUI5wrvaNK6intZera9/kNwP/sgwpIGNJMdi8
8QIDAQABo4IBwDCCAbwwCQYDVR0TBAIwADARBglghkgBhvhCAQEEBAMCBkAwNAYJ
YIZIAYb4QgENBCcWJUVhc3ktUlNBIEdlbmVyYXRlZCBTZXJ2ZXIgQ2VydGlmaWNh
dGUwHQYDVR0OBBYEFPEY1y3pH36B7A/ysHIOnfK/U53FMIIBEAYDVR0jBIIBBzCC
AQOAFEbr4rnWQ2+4hh6+1H1AheLZakcjoYHfpIHcMIHZMQswCQYDVQQGEwJHUjEL
MAkGA1UECBMCQ1IxEjAQBgNVBAcTCUllcmFwZXRyYTEjMCEGA1UEChMaM2VwYWwt
ZXNwLWllcmFwLmxhcy5zY2guZ3IxGTAXBgNVBAsUEENvbXB1dGVyX1NjaWVuY2Ux
JjAkBgNVBAMTHTNlcGFsLWVzcC1pZXJhcC5sYXMuc2NoLmdyIENBMRAwDgYDVQQp
EwdFYXN5UlNBMS8wLQYJKoZIhvcNAQkBFiBhZG1pbkAzZXBhbC1lc3AtaWVyYXAu
bGFzLnNjaC5ncoIJAIx1U4pJ3RXqMBMGA1UdJQQMMAoGCCsGAQUFBwMBMAsGA1Ud
DwQEAwIFoDARBgNVHREECjAIggZzZXJ2ZXIwDQYJKoZIhvcNAQELBQADggEBAB+P
Ol4sTBCCWq9QejOJYYYcYv8jZ9BA3hW0KO7IL5680LM1XiuG3IDbej4j96wBdUb+
Fo1JUSsSabwhlWtSvjOBqjUX7JqndV2YuKqrW8hI8+scWHQc7gYzV57cYEpsWZi1
/5Hvg5hYtuTNMwBHHR3iV9QbkQtpDGq0A8+K4AZDj2m71ILQh3OpWcJCflYCL578
4pTddZvIhs1A98WjEn1tlqk5TdCZqshiTvH/MpOw1+QMMd+Takq48ZUBDtZCmGOD
HGfS5LpzDsg/MCeWK6M2TUDuPIHrYwyWaDq5bPSDX3pFZp/kcE+l/zcpWRB77m/9
kDAvCF6sV6MX6sPt7P8=
-----END CERTIFICATE-----
